target datalayout = "e-m:e-p270:32:32-p271:32:32-p272:64:64-i64:64-i128:128-f80:128-n8:16:32:64-S128"
target triple = "x86_64-pc-linux-gnu"

@__const.test_kdf_pbkdf1.expected = private unnamed_addr constant [25 x i8] c"\FB\83M6m\BCS\875\1B4u\95\882O>\82\81\01!\93d\00\CC", align 16
@.str.53 = private unnamed_addr constant [31 x i8] c"../openssl/test/evp_kdf_test.c\00", align 1
@.str.54 = private unnamed_addr constant [28 x i8] c"libctx = OSSL_LIB_CTX_new()\00", align 1
@.str.55 = private unnamed_addr constant [7 x i8] c"legacy\00", align 1
@.str.56 = private unnamed_addr constant [41 x i8] c"PBKDF1 only available in legacy provider\00", align 1
@.str.57 = private unnamed_addr constant [48 x i8] c"defprov = OSSL_PROVIDER_load(libctx, \22default\22)\00", align 1
@.str.58 = private unnamed_addr constant [8 x i8] c"default\00", align 1
@.str.59 = private unnamed_addr constant [25 x i8] c"passwordPASSWORDpassword\00", align 1
@.str.60 = private unnamed_addr constant [7 x i8] c"sha256\00", align 1
@.str.61 = private unnamed_addr constant [37 x i8] c"saltSALTsaltSALTsaltSALTsaltSALTsalt\00", align 1
@.str.62 = private unnamed_addr constant [7 x i8] c"params\00", align 1
@.str.63 = private unnamed_addr constant [58 x i8] c"kctx = get_kdfbyname_libctx(libctx, OSSL_KDF_NAME_PBKDF1)\00", align 1
@.str.64 = private unnamed_addr constant [7 x i8] c"PBKDF1\00", align 1
@.str.65 = private unnamed_addr constant [37 x i8] c"EVP_KDF_CTX_set_params(kctx, params)\00", align 1
@.str.66 = private unnamed_addr constant [45 x i8] c"EVP_KDF_derive(kctx, out, sizeof(out), NULL)\00", align 1
@.str.67 = private unnamed_addr constant [2 x i8] c"0\00", align 1
@.str.68 = private unnamed_addr constant [4 x i8] c"out\00", align 1
@.str.69 = private unnamed_addr constant [9 x i8] c"expected\00", align 1

; Function Attrs: nounwind uwtable
define internal ptr @get_kdfbyname_libctx(ptr noundef %0, ptr noundef %1) #0 {
  %3 = alloca ptr, align 8
  %4 = alloca ptr, align 8
  %5 = alloca ptr, align 8
  %6 = alloca ptr, align 8
  store ptr %0, ptr %3, align 8, !tbaa !11
  store ptr %1, ptr %4, align 8, !tbaa !18
  call void @llvm.lifetime.start.p0(i64 8, ptr %5) #6
  %7 = load ptr, ptr %3, align 8, !tbaa !11
  %8 = load ptr, ptr %4, align 8, !tbaa !18
  %9 = call ptr @EVP_KDF_fetch(ptr noundef %7, ptr noundef %8, ptr noundef null)
  store ptr %9, ptr %5, align 8, !tbaa !26
  call void @llvm.lifetime.start.p0(i64 8, ptr %6) #6
  %10 = load ptr, ptr %5, align 8, !tbaa !26
  %11 = call ptr @EVP_KDF_CTX_new(ptr noundef %10)
  store ptr %11, ptr %6, align 8, !tbaa !8
  %12 = load ptr, ptr %5, align 8, !tbaa !26
  call void @EVP_KDF_free(ptr noundef %12)
  %13 = load ptr, ptr %6, align 8, !tbaa !8
  call void @llvm.lifetime.end.p0(i64 8, ptr %6) #6
  call void @llvm.lifetime.end.p0(i64 8, ptr %5) #6
  ret ptr %13
}

; Function Attrs: nounwind uwtable
define internal i32 @test_kdf_pbkdf1() #0 {
  %1 = alloca i32, align 4
  %2 = alloca i32, align 4
  %3 = alloca ptr, align 8
  %4 = alloca [25 x i8], align 16
  %5 = alloca i32, align 4
  %6 = alloca ptr, align 8
  %7 = alloca ptr, align 8
  %8 = alloca ptr, align 8
  %9 = alloca ptr, align 8
  %10 = alloca [25 x i8], align 16
  %11 = alloca i32, align 4
  call void @llvm.lifetime.start.p0(i64 4, ptr %2) #6
  store i32 0, ptr %2, align 4, !tbaa !4
  call void @llvm.lifetime.start.p0(i64 8, ptr %3) #6
  store ptr null, ptr %3, align 8, !tbaa !8
  call void @llvm.lifetime.start.p0(i64 25, ptr %4) #6
  call void @llvm.lifetime.start.p0(i64 4, ptr %5) #6
  store i32 4096, ptr %5, align 4, !tbaa !4
  call void @llvm.lifetime.start.p0(i64 8, ptr %6) #6
  store ptr null, ptr %6, align 8, !tbaa !11
  call void @llvm.lifetime.start.p0(i64 8, ptr %7) #6
  store ptr null, ptr %7, align 8, !tbaa !13
  call void @llvm.lifetime.start.p0(i64 8, ptr %8) #6
  store ptr null, ptr %8, align 8, !tbaa !15
  call void @llvm.lifetime.start.p0(i64 8, ptr %9) #6
  store ptr null, ptr %9, align 8, !tbaa !15
  call void @llvm.lifetime.start.p0(i64 25, ptr %10) #6
  call void @llvm.memcpy.p0.p0.i64(ptr align 16 %10, ptr align 16 @__const.test_kdf_pbkdf1.expected, i64 25, i1 false)
  %12 = call ptr @OSSL_LIB_CTX_new()
  store ptr %12, ptr %6, align 8, !tbaa !11
  %13 = call i32 @test_ptr(ptr noundef @.str.53, i32 noundef 513, ptr noundef @.str.54, ptr noundef %12)
  %14 = icmp ne i32 %13, 0
  br i1 %14, label %16, label %15

15:                                               ; preds = %0
  br label %61

16:                                               ; preds = %0
  %17 = load ptr, ptr %6, align 8, !tbaa !11
  %18 = call ptr @OSSL_PROVIDER_load(ptr noundef %17, ptr noundef @.str.55)
  store ptr %18, ptr %8, align 8, !tbaa !15
  %19 = load ptr, ptr %8, align 8, !tbaa !15
  %20 = icmp eq ptr %19, null
  br i1 %20, label %21, label %24

21:                                               ; preds = %16
  %22 = load ptr, ptr %6, align 8, !tbaa !11
  call void @OSSL_LIB_CTX_free(ptr noundef %22)
  %23 = call i32 (ptr, i32, ptr, ...) @test_skip(ptr noundef @.str.53, i32 noundef 520, ptr noundef @.str.56)
  store i32 %23, ptr %1, align 4
  store i32 1, ptr %11, align 4
  br label %70

24:                                               ; preds = %16
  %25 = load ptr, ptr %6, align 8, !tbaa !11
  %26 = call ptr @OSSL_PROVIDER_load(ptr noundef %25, ptr noundef @.str.58)
  store ptr %26, ptr %9, align 8, !tbaa !15
  %27 = call i32 @test_ptr(ptr noundef @.str.53, i32 noundef 523, ptr noundef @.str.57, ptr noundef %26)
  %28 = icmp ne i32 %27, 0
  br i1 %28, label %30, label %29

29:                                               ; preds = %24
  br label %61

30:                                               ; preds = %24
  %31 = call ptr @construct_pbkdf1_params(ptr noundef @.str.59, ptr noundef @.str.60, ptr noundef @.str.61, ptr noundef %5)
  store ptr %31, ptr %7, align 8, !tbaa !13
  %32 = load ptr, ptr %7, align 8, !tbaa !13
  %33 = call i32 @test_ptr(ptr noundef @.str.53, i32 noundef 530, ptr noundef @.str.62, ptr noundef %32)
  %34 = icmp ne i32 %33, 0
  br i1 %34, label %35, label %59

35:                                               ; preds = %30
  %36 = load ptr, ptr %6, align 8, !tbaa !11
  %37 = call ptr @get_kdfbyname_libctx(ptr noundef %36, ptr noundef @.str.64)
  store ptr %37, ptr %3, align 8, !tbaa !8
  %38 = call i32 @test_ptr(ptr noundef @.str.53, i32 noundef 531, ptr noundef @.str.63, ptr noundef %37)
  %39 = icmp ne i32 %38, 0
  br i1 %39, label %40, label %59

40:                                               ; preds = %35
  %41 = load ptr, ptr %3, align 8, !tbaa !8
  %42 = load ptr, ptr %7, align 8, !tbaa !13
  %43 = call i32 @EVP_KDF_CTX_set_params(ptr noundef %41, ptr noundef %42)
  %44 = icmp ne i32 %43, 0
  %45 = zext i1 %44 to i32
  %46 = call i32 @test_true(ptr noundef @.str.53, i32 noundef 532, ptr noundef @.str.65, i32 noundef %45)
  %47 = icmp ne i32 %46, 0
  br i1 %47, label %48, label %59

48:                                               ; preds = %40
  %49 = load ptr, ptr %3, align 8, !tbaa !8
  %50 = getelementptr inbounds [25 x i8], ptr %4, i64 0, i64 0
  %51 = call i32 @EVP_KDF_derive(ptr noundef %49, ptr noundef %50, i64 noundef 25, ptr noundef null)
  %52 = call i32 @test_int_gt(ptr noundef @.str.53, i32 noundef 533, ptr noundef @.str.66, ptr noundef @.str.67, i32 noundef %51, i32 noundef 0)
  %53 = icmp ne i32 %52, 0
  br i1 %53, label %54, label %59

54:                                               ; preds = %48
  %55 = getelementptr inbounds [25 x i8], ptr %4, i64 0, i64 0
  %56 = getelementptr inbounds [25 x i8], ptr %10, i64 0, i64 0
  %57 = call i32 @test_mem_eq(ptr noundef @.str.53, i32 noundef 534, ptr noundef @.str.68, ptr noundef @.str.69, ptr noundef %55, i64 noundef 25, ptr noundef %56, i64 noundef 25)
  %58 = icmp ne i32 %57, 0
  br i1 %58, label %60, label %59

59:                                               ; preds = %54, %48, %40, %35, %30
  br label %61

60:                                               ; preds = %54
  store i32 1, ptr %2, align 4, !tbaa !4
  br label %61

61:                                               ; preds = %60, %59, %29, %15
  %62 = load ptr, ptr %3, align 8, !tbaa !8
  call void @EVP_KDF_CTX_free(ptr noundef %62)
  %63 = load ptr, ptr %7, align 8, !tbaa !13
  call void @CRYPTO_free(ptr noundef %63, ptr noundef @.str.53, i32 noundef 540)
  %64 = load ptr, ptr %9, align 8, !tbaa !15
  %65 = call i32 @OSSL_PROVIDER_unload(ptr noundef %64)
  %66 = load ptr, ptr %8, align 8, !tbaa !15
  %67 = call i32 @OSSL_PROVIDER_unload(ptr noundef %66)
  %68 = load ptr, ptr %6, align 8, !tbaa !11
  call void @OSSL_LIB_CTX_free(ptr noundef %68)
  %69 = load i32, ptr %2, align 4, !tbaa !4
  store i32 %69, ptr %1, align 4
  store i32 1, ptr %11, align 4
  br label %70

70:                                               ; preds = %61, %21
  call void @llvm.lifetime.end.p0(i64 25, ptr %10) #6
  call void @llvm.lifetime.end.p0(i64 8, ptr %9) #6
  call void @llvm.lifetime.end.p0(i64 8, ptr %8) #6
  call void @llvm.lifetime.end.p0(i64 8, ptr %7) #6
  call void @llvm.lifetime.end.p0(i64 8, ptr %6) #6
  call void @llvm.lifetime.end.p0(i64 4, ptr %5) #6
  call void @llvm.lifetime.end.p0(i64 25, ptr %4) #6
  call void @llvm.lifetime.end.p0(i64 8, ptr %3) #6
  call void @llvm.lifetime.end.p0(i64 4, ptr %2) #6
  %71 = load i32, ptr %1, align 4
  ret i32 %71
}