; Function Attrs: nounwind uwtable
define internal i32 @test_kdf_pbkdf1() #0 {
  %1 = alloca [25 x i8], align 16
  %2 = alloca i32, align 4
  %3 = alloca [25 x i8], align 16
  call void @llvm.lifetime.start.p0(i64 25, ptr nonnull %1) #6
  call void @llvm.lifetime.start.p0(i64 4, ptr nonnull %2) #6
  store i32 4096, ptr %2, align 4, !tbaa !4
  call void @llvm.lifetime.start.p0(i64 25, ptr nonnull %3) #6
  call void @llvm.memcpy.p0.p0.i64(ptr noundef nonnull align 16 dereferenceable(25) %3, ptr noundef nonnull align 16 dereferenceable(25) @__const.test_kdf_pbkdf1.expected, i64 25, i1 false)
  %4 = tail call ptr @OSSL_LIB_CTX_new() #6
  %5 = tail call i32 @test_ptr(ptr noundef nonnull @.str.53, i32 noundef 513, ptr noundef nonnull @.str.54, ptr noundef %4) #6
  %.not = icmp eq i32 %5, 0
  br i1 %.not, label %31, label %6

6:                                                ; preds = %0
  %7 = tail call ptr @OSSL_PROVIDER_load(ptr noundef %4, ptr noundef nonnull @.str.55) #6
  %8 = icmp eq ptr %7, null
  br i1 %8, label %9, label %11

9:                                                ; preds = %6
  tail call void @OSSL_LIB_CTX_free(ptr noundef %4) #6
  %10 = tail call i32 (ptr, i32, ptr, ...) @test_skip(ptr noundef nonnull @.str.53, i32 noundef 520, ptr noundef nonnull @.str.56) #6
  br label %34

11:                                               ; preds = %6
  %12 = tail call ptr @OSSL_PROVIDER_load(ptr noundef %4, ptr noundef nonnull @.str.58) #6
  %13 = tail call i32 @test_ptr(ptr noundef nonnull @.str.53, i32 noundef 523, ptr noundef nonnull @.str.57, ptr noundef %12) #6
  %.not21 = icmp eq i32 %13, 0
  br i1 %.not21, label %31, label %14

14:                                               ; preds = %11
  %15 = call fastcc ptr @construct_pbkdf1_params(ptr noundef %2)
  %16 = call i32 @test_ptr(ptr noundef nonnull @.str.53, i32 noundef 530, ptr noundef nonnull @.str.62, ptr noundef %15) #6
  %.not22 = icmp eq i32 %16, 0
  br i1 %.not22, label %31, label %17

17:                                               ; preds = %14
  %18 = call ptr @EVP_KDF_fetch(ptr noundef %4, ptr noundef nonnull @.str.64, ptr noundef null) #6
  %19 = call ptr @EVP_KDF_CTX_new(ptr noundef %18) #6
  call void @EVP_KDF_free(ptr noundef %18) #6
  %20 = call i32 @test_ptr(ptr noundef nonnull @.str.53, i32 noundef 531, ptr noundef nonnull @.str.63, ptr noundef %19) #6
  %.not23 = icmp eq i32 %20, 0
  br i1 %.not23, label %31, label %21

21:                                               ; preds = %17
  %22 = call i32 @EVP_KDF_CTX_set_params(ptr noundef %19, ptr noundef %15) #6
  %23 = icmp ne i32 %22, 0
  %24 = zext i1 %23 to i32
  %25 = call i32 @test_true(ptr noundef nonnull @.str.53, i32 noundef 532, ptr noundef nonnull @.str.65, i32 noundef %24) #6
  %.not24 = icmp eq i32 %25, 0
  br i1 %.not24, label %31, label %26

26:                                               ; preds = %21
  %27 = call i32 @EVP_KDF_derive(ptr noundef %19, ptr noundef nonnull %1, i64 noundef 25, ptr noundef null) #6
  %28 = call i32 @test_int_gt(ptr noundef nonnull @.str.53, i32 noundef 533, ptr noundef nonnull @.str.66, ptr noundef nonnull @.str.67, i32 noundef %27, i32 noundef 0) #6
  %.not25 = icmp eq i32 %28, 0
  br i1 %.not25, label %31, label %29

29:                                               ; preds = %26
  %30 = call i32 @test_mem_eq(ptr noundef nonnull @.str.53, i32 noundef 534, ptr noundef nonnull @.str.68, ptr noundef nonnull @.str.69, ptr noundef nonnull %1, i64 noundef 25, ptr noundef nonnull %3, i64 noundef 25) #6
  %.not26 = icmp ne i32 %30, 0
  %spec.select = zext i1 %.not26 to i32
  br label %31

31:                                               ; preds = %29, %14, %17, %21, %26, %11, %0
  %.018 = phi i32 [ 0, %26 ], [ 0, %21 ], [ 0, %17 ], [ 0, %14 ], [ 0, %11 ], [ 0, %0 ], [ %spec.select, %29 ]
  %.017 = phi ptr [ %19, %26 ], [ %19, %21 ], [ %19, %17 ], [ null, %14 ], [ null, %11 ], [ null, %0 ], [ %19, %29 ]
  %.016 = phi ptr [ %15, %26 ], [ %15, %21 ], [ %15, %17 ], [ %15, %14 ], [ null, %11 ], [ null, %0 ], [ %15, %29 ]
  %.015 = phi ptr [ %7, %26 ], [ %7, %21 ], [ %7, %17 ], [ %7, %14 ], [ %7, %11 ], [ null, %0 ], [ %7, %29 ]
  %.0 = phi ptr [ %12, %26 ], [ %12, %21 ], [ %12, %17 ], [ %12, %14 ], [ %12, %11 ], [ null, %0 ], [ %12, %29 ]
  call void @EVP_KDF_CTX_free(ptr noundef %.017) #6
  call void @CRYPTO_free(ptr noundef %.016, ptr noundef nonnull @.str.53, i32 noundef 540) #6
  %32 = call i32 @OSSL_PROVIDER_unload(ptr noundef %.0) #6
  %33 = call i32 @OSSL_PROVIDER_unload(ptr noundef %.015) #6
  call void @OSSL_LIB_CTX_free(ptr noundef %4) #6
  br label %34

34:                                               ; preds = %31, %9
  %.019 = phi i32 [ %10, %9 ], [ %.018, %31 ]
  call void @llvm.lifetime.end.p0(i64 25, ptr nonnull %3) #6
  call void @llvm.lifetime.end.p0(i64 4, ptr nonnull %2) #6
  call void @llvm.lifetime.end.p0(i64 25, ptr nonnull %1) #6
  ret i32 %.019
}